target datalayout = "e-m:e-p270:32:32-p271:32:32-p272:64:64-i64:64-i128:128-f80:128-n8:16:32:64-S128"
target triple = "x86_64-pc-linux-gnu"

%struct.AVFilterContext = type { ptr, ptr, ptr, ptr, ptr, i32, ptr, ptr, i32, ptr, ptr, i32, i32, ptr, ptr, ptr, ptr, i32, ptr, i32, i32 }
%struct.AudioDynamicEqualizerContext = type { ptr, double, double, double, double, double, double, double, double, double, double, double, double, double, double, double, i32, i32, i32, i32, i32, i32, i32, ptr, ptr, [3 x double], [3 x double], [3 x float], [3 x float], ptr }
%struct.ChannelContext = type { [3 x double], [3 x double], [2 x double], [2 x double], [2 x double], double, double, double, double, double, double, [3 x float], [3 x float], [2 x float], [2 x float], [2 x float], float, float, float, float, float, float, ptr, ptr, i32, i32, i32, i32, i32, i32 }
%struct.AVFilterLink = type { ptr, ptr, ptr, ptr, i32, i32, i32, i32, %struct.AVRational, i32, i32, i32, %struct.AVChannelLayout, %struct.AVRational, ptr, i32, %struct.AVFilterFormatsConfig, %struct.AVFilterFormatsConfig }
%struct.AVChannelLayout = type { i32, i32, %union.anon.1, ptr }
%union.anon.1 = type { i64 }
%struct.AVRational = type { i32, i32 }
%struct.AVFilterFormatsConfig = type { ptr, ptr, ptr, ptr, ptr }

; Function Attrs: nounwind uwtable
define internal i32 @config_input(ptr noundef %0) #1 {
  %2 = alloca i32, align 4
  %3 = alloca ptr, align 8
  %4 = alloca ptr, align 8
  %5 = alloca ptr, align 8
  %6 = alloca i32, align 4
  %7 = alloca i32, align 4
  %8 = alloca ptr, align 8
  store ptr %0, ptr %3, align 8, !tbaa !36
  call void @llvm.lifetime.start.p0(i64 8, ptr %4) #8
  %9 = load ptr, ptr %3, align 8, !tbaa !36
  %10 = getelementptr inbounds nuw %struct.AVFilterLink, ptr %9, i32 0, i32 2
  %11 = load ptr, ptr %10, align 8, !tbaa !40
  store ptr %11, ptr %4, align 8, !tbaa !4
  call void @llvm.lifetime.start.p0(i64 8, ptr %5) #8
  %12 = load ptr, ptr %4, align 8, !tbaa !4
  %13 = getelementptr inbounds nuw %struct.AVFilterContext, ptr %12, i32 0, i32 9
  %14 = load ptr, ptr %13, align 8, !tbaa !9
  store ptr %14, ptr %5, align 8, !tbaa !22
  %15 = load ptr, ptr %3, align 8, !tbaa !36
  %16 = getelementptr inbounds nuw %struct.AVFilterLink, ptr %15, i32 0, i32 5
  %17 = load i32, ptr %16, align 4, !tbaa !61
  %18 = load ptr, ptr %5, align 8, !tbaa !22
  %19 = getelementptr inbounds nuw %struct.AudioDynamicEqualizerContext, ptr %18, i32 0, i32 21
  store i32 %17, ptr %19, align 4, !tbaa !62
  %20 = load ptr, ptr %3, align 8, !tbaa !36
  %21 = getelementptr inbounds nuw %struct.AVFilterLink, ptr %20, i32 0, i32 12
  %22 = getelementptr inbounds nuw %struct.AVChannelLayout, ptr %21, i32 0, i32 1
  %23 = load i32, ptr %22, align 4, !tbaa !60
  %24 = sext i32 %23 to i64
  %25 = call noalias ptr @av_calloc(i64 noundef %24, i64 noundef 256)
  %26 = load ptr, ptr %5, align 8, !tbaa !22
  %27 = getelementptr inbounds nuw %struct.AudioDynamicEqualizerContext, ptr %26, i32 0, i32 29
  store ptr %25, ptr %27, align 8, !tbaa !29
  %28 = load ptr, ptr %5, align 8, !tbaa !22
  %29 = getelementptr inbounds nuw %struct.AudioDynamicEqualizerContext, ptr %28, i32 0, i32 29
  %30 = load ptr, ptr %29, align 8, !tbaa !29
  %31 = icmp ne ptr %30, null
  br i1 %31, label %33, label %32

32:                                               ; preds = %1
  store i32 -12, ptr %2, align 4
  store i32 1, ptr %6, align 4
  br label %102

33:                                               ; preds = %1
  %34 = load ptr, ptr %3, align 8, !tbaa !36
  %35 = getelementptr inbounds nuw %struct.AVFilterLink, ptr %34, i32 0, i32 12
  %36 = getelementptr inbounds nuw %struct.AVChannelLayout, ptr %35, i32 0, i32 1
  %37 = load i32, ptr %36, align 4, !tbaa !60
  %38 = load ptr, ptr %5, align 8, !tbaa !22
  %39 = getelementptr inbounds nuw %struct.AudioDynamicEqualizerContext, ptr %38, i32 0, i32 22
  store i32 %37, ptr %39, align 8, !tbaa !25
  %40 = load ptr, ptr %5, align 8, !tbaa !22
  %41 = getelementptr inbounds nuw %struct.AudioDynamicEqualizerContext, ptr %40, i32 0, i32 21
  %42 = load i32, ptr %41, align 4, !tbaa !62
  switch i32 %42, label %53 [
    i32 9, label %43
    i32 8, label %48
  ]

43:                                               ; preds = %33
  %44 = load ptr, ptr %5, align 8, !tbaa !22
  %45 = getelementptr inbounds nuw %struct.AudioDynamicEqualizerContext, ptr %44, i32 0, i32 23
  store ptr @filter_prepare_double, ptr %45, align 8, !tbaa !58
  %46 = load ptr, ptr %5, align 8, !tbaa !22
  %47 = getelementptr inbounds nuw %struct.AudioDynamicEqualizerContext, ptr %46, i32 0, i32 24
  store ptr @filter_channels_double, ptr %47, align 8, !tbaa !59
  br label %53

48:                                               ; preds = %33
  %49 = load ptr, ptr %5, align 8, !tbaa !22
  %50 = getelementptr inbounds nuw %struct.AudioDynamicEqualizerContext, ptr %49, i32 0, i32 23
  store ptr @filter_prepare_float, ptr %50, align 8, !tbaa !58
  %51 = load ptr, ptr %5, align 8, !tbaa !22
  %52 = getelementptr inbounds nuw %struct.AudioDynamicEqualizerContext, ptr %51, i32 0, i32 24
  store ptr @filter_channels_float, ptr %52, align 8, !tbaa !59
  br label %53

53:                                               ; preds = %33, %48, %43
  call void @llvm.lifetime.start.p0(i64 4, ptr %7) #8
  store i32 0, ptr %7, align 4, !tbaa !24
  br label %54

54:                                               ; preds = %96, %53
  %55 = load i32, ptr %7, align 4, !tbaa !24
  %56 = load ptr, ptr %5, align 8, !tbaa !22
  %57 = getelementptr inbounds nuw %struct.AudioDynamicEqualizerContext, ptr %56, i32 0, i32 22
  %58 = load i32, ptr %57, align 8, !tbaa !25
  %59 = icmp slt i32 %55, %58
  br i1 %59, label %61, label %60

60:                                               ; preds = %54
  store i32 3, ptr %6, align 4
  br label %99

61:                                               ; preds = %54
  call void @llvm.lifetime.start.p0(i64 8, ptr %8) #8
  %62 = load ptr, ptr %5, align 8, !tbaa !22
  %63 = getelementptr inbounds nuw %struct.AudioDynamicEqualizerContext, ptr %62, i32 0, i32 29
  %64 = load ptr, ptr %63, align 8, !tbaa !29
  %65 = load i32, ptr %7, align 4, !tbaa !24
  %66 = sext i32 %65 to i64
  %67 = getelementptr inbounds %struct.ChannelContext, ptr %64, i64 %66
  store ptr %67, ptr %8, align 8, !tbaa !30
  %68 = load ptr, ptr %3, align 8, !tbaa !36
  %69 = getelementptr inbounds nuw %struct.AVFilterLink, ptr %68, i32 0, i32 11
  %70 = load i32, ptr %69, align 8, !tbaa !63
  %71 = sext i32 %70 to i64
  %72 = call noalias ptr @av_calloc(i64 noundef %71, i64 noundef 8)
  %73 = load ptr, ptr %8, align 8, !tbaa !30
  %74 = getelementptr inbounds nuw %struct.ChannelContext, ptr %73, i32 0, i32 23
  store ptr %72, ptr %74, align 8, !tbaa !64
  %75 = load ptr, ptr %3, align 8, !tbaa !36
  %76 = getelementptr inbounds nuw %struct.AVFilterLink, ptr %75, i32 0, i32 11
  %77 = load i32, ptr %76, align 8, !tbaa !63
  %78 = sext i32 %77 to i64
  %79 = call noalias ptr @av_calloc(i64 noundef %78, i64 noundef 8)
  %80 = load ptr, ptr %8, align 8, !tbaa !30
  %81 = getelementptr inbounds nuw %struct.ChannelContext, ptr %80, i32 0, i32 22
  store ptr %79, ptr %81, align 8, !tbaa !67
  %82 = load ptr, ptr %8, align 8, !tbaa !30
  %83 = getelementptr inbounds nuw %struct.ChannelContext, ptr %82, i32 0, i32 23
  %84 = load ptr, ptr %83, align 8, !tbaa !64
  %85 = icmp ne ptr %84, null
  br i1 %85, label %86, label %91

86:                                               ; preds = %61
  %87 = load ptr, ptr %8, align 8, !tbaa !30
  %88 = getelementptr inbounds nuw %struct.ChannelContext, ptr %87, i32 0, i32 22
  %89 = load ptr, ptr %88, align 8, !tbaa !67
  %90 = icmp ne ptr %89, null
  br i1 %90, label %92, label %91

91:                                               ; preds = %86, %61
  store i32 -12, ptr %2, align 4
  store i32 1, ptr %6, align 4
  br label %93

92:                                               ; preds = %86
  store i32 0, ptr %6, align 4
  br label %93

93:                                               ; preds = %92, %91
  call void @llvm.lifetime.end.p0(i64 8, ptr %8) #8
  %94 = load i32, ptr %6, align 4
  switch i32 %94, label %99 [
    i32 0, label %95
  ]

95:                                               ; preds = %93
  br label %96

96:                                               ; preds = %95
  %97 = load i32, ptr %7, align 4, !tbaa !24
  %98 = add nsw i32 %97, 1
  store i32 %98, ptr %7, align 4, !tbaa !24
  br label %54, !llvm.loop !68

99:                                               ; preds = %93, %60
  call void @llvm.lifetime.end.p0(i64 4, ptr %7) #8
  %100 = load i32, ptr %6, align 4
  switch i32 %100, label %102 [
    i32 3, label %101
  ]

101:                                              ; preds = %99
  store i32 0, ptr %2, align 4
  store i32 1, ptr %6, align 4
  br label %102

102:                                              ; preds = %101, %99, %32
  call void @llvm.lifetime.end.p0(i64 8, ptr %5) #8
  call void @llvm.lifetime.end.p0(i64 8, ptr %4) #8
  %103 = load i32, ptr %2, align 4
  ret i32 %103
}