; Function Attrs: nounwind uwtable
define internal range(i32 -12, 1) i32 @config_input(ptr noundef readonly captures(none) %0) #1 {
  %2 = getelementptr inbounds nuw i8, ptr %0, i64 16
  %3 = load ptr, ptr %2, align 8, !tbaa !30
  %4 = getelementptr inbounds nuw i8, ptr %3, i64 72
  %5 = load ptr, ptr %4, align 8, !tbaa !4
  %6 = getelementptr inbounds nuw i8, ptr %0, i64 36
  %7 = load i32, ptr %6, align 4, !tbaa !54
  %8 = getelementptr inbounds nuw i8, ptr %5, i64 148
  store i32 %7, ptr %8, align 4, !tbaa !55
  %9 = getelementptr inbounds nuw i8, ptr %0, i64 76
  %10 = load i32, ptr %9, align 4, !tbaa !53
  %11 = sext i32 %10 to i64
  %12 = tail call noalias ptr @av_calloc(i64 noundef %11, i64 noundef 256) #10
  %13 = getelementptr inbounds nuw i8, ptr %5, i64 248
  store ptr %12, ptr %13, align 8, !tbaa !24
  %.not = icmp eq ptr %12, null
  br i1 %.not, label %.loopexit, label %14

14:                                               ; preds = %1
  %15 = load i32, ptr %9, align 4, !tbaa !53
  %16 = getelementptr inbounds nuw i8, ptr %5, i64 152
  store i32 %15, ptr %16, align 8, !tbaa !20
  %17 = load i32, ptr %8, align 4, !tbaa !55
  switch i32 %17, label %21 [
    i32 9, label %.sink.split
    i32 8, label %18
  ]

18:                                               ; preds = %14
  br label %.sink.split

.sink.split:                                      ; preds = %14, %18
  %filter_prepare_float.sink = phi ptr [ @filter_prepare_float, %18 ], [ @filter_prepare_double, %14 ]
  %filter_channels_float.sink = phi ptr [ @filter_channels_float, %18 ], [ @filter_channels_double, %14 ]
  %19 = getelementptr inbounds nuw i8, ptr %5, i64 160
  store ptr %filter_prepare_float.sink, ptr %19, align 8, !tbaa !51
  %20 = getelementptr inbounds nuw i8, ptr %5, i64 168
  store ptr %filter_channels_float.sink, ptr %20, align 8, !tbaa !52
  br label %21

21:                                               ; preds = %.sink.split, %14
  %.not3334 = icmp sgt i32 %15, 0
  br i1 %.not3334, label %.critedge.lr.ph, label %.loopexit

.critedge.lr.ph:                                  ; preds = %21
  %22 = getelementptr inbounds nuw i8, ptr %0, i64 64
  br label %.critedge

23:                                               ; preds = %.critedge
  %indvars.iv.next = add nuw nsw i64 %indvars.iv, 1
  %24 = load i32, ptr %16, align 8, !tbaa !20
  %25 = sext i32 %24 to i64
  %.not33 = icmp slt i64 %indvars.iv.next, %25
  br i1 %.not33, label %.critedge, label %.loopexit, !llvm.loop !56

.critedge:                                        ; preds = %.critedge.lr.ph, %23
  %indvars.iv = phi i64 [ 0, %.critedge.lr.ph ], [ %indvars.iv.next, %23 ]
  %26 = load ptr, ptr %13, align 8, !tbaa !24
  %27 = getelementptr inbounds nuw %struct.ChannelContext, ptr %26, i64 %indvars.iv
  %28 = load i32, ptr %22, align 8, !tbaa !57
  %29 = sext i32 %28 to i64
  %30 = tail call noalias ptr @av_calloc(i64 noundef %29, i64 noundef 8) #10
  %31 = getelementptr inbounds nuw i8, ptr %27, i64 224
  store ptr %30, ptr %31, align 8, !tbaa !58
  %32 = load i32, ptr %22, align 8, !tbaa !57
  %33 = sext i32 %32 to i64
  %34 = tail call noalias ptr @av_calloc(i64 noundef %33, i64 noundef 8) #10
  %35 = getelementptr inbounds nuw i8, ptr %27, i64 216
  store ptr %34, ptr %35, align 8, !tbaa !61
  %36 = load ptr, ptr %31, align 8, !tbaa !58
  %.not31 = icmp eq ptr %36, null
  %.not32 = icmp eq ptr %34, null
  %or.cond = select i1 %.not31, i1 true, i1 %.not32
  br i1 %or.cond, label %.loopexit, label %23

.loopexit:                                        ; preds = %.critedge, %23, %21, %1
  %.0 = phi i32 [ -12, %1 ], [ 0, %21 ], [ -12, %.critedge ], [ 0, %23 ]
  ret i32 %.0
}